target datalayout = "e-m:e-p270:32:32-p271:32:32-p272:64:64-i64:64-i128:128-f80:128-n8:16:32:64-S128"
target triple = "x86_64-pc-linux-gnu"

%struct.DataBuffer = type { i64, i32, i32, ptr }

@stderr = external global ptr, align 8
@.str.11 = private unnamed_addr constant [49 x i8] c"Cannot read trajectory, file possibly corrupted.\00", align 1

; Function Attrs: mustprogress nounwind uwtable
define internal noundef i32 @_ZL11receivebitsP10DataBufferi(ptr noundef %0, i32 noundef %1) #3 {
  %3 = alloca ptr, align 8
  %4 = alloca i32, align 4
  %5 = alloca i32, align 4
  %6 = alloca i32, align 4
  %7 = alloca i32, align 4
  %8 = alloca i32, align 4
  store ptr %0, ptr %3, align 8, !tbaa !56
  store i32 %1, ptr %4, align 4, !tbaa !13
  call void @llvm.lifetime.start.p0(i64 4, ptr %5) #11
  call void @llvm.lifetime.start.p0(i64 4, ptr %6) #11
  call void @llvm.lifetime.start.p0(i64 4, ptr %7) #11
  call void @llvm.lifetime.start.p0(i64 4, ptr %8) #11
  %9 = load i32, ptr %4, align 4, !tbaa !13
  %10 = shl i32 1, %9
  %11 = sub nsw i32 %10, 1
  store i32 %11, ptr %8, align 4, !tbaa !13
  %12 = load ptr, ptr %3, align 8, !tbaa !56
  %13 = getelementptr inbounds nuw %struct.DataBuffer, ptr %12, i32 0, i32 1
  %14 = load i32, ptr %13, align 8, !tbaa !40
  store i32 %14, ptr %6, align 4, !tbaa !13
  %15 = load ptr, ptr %3, align 8, !tbaa !56
  %16 = getelementptr inbounds nuw %struct.DataBuffer, ptr %15, i32 0, i32 2
  %17 = load i32, ptr %16, align 4, !tbaa !41
  store i32 %17, ptr %7, align 4, !tbaa !13
  store i32 0, ptr %5, align 4, !tbaa !13
  br label %18

18:                                               ; preds = %21, %2
  %19 = load i32, ptr %4, align 4, !tbaa !13
  %20 = icmp sge i32 %19, 8
  br i1 %20, label %21, label %45

21:                                               ; preds = %18
  %22 = load i32, ptr %7, align 4, !tbaa !13
  %23 = shl i32 %22, 8
  %24 = load ptr, ptr %3, align 8, !tbaa !56
  %25 = getelementptr inbounds nuw %struct.DataBuffer, ptr %24, i32 0, i32 3
  %26 = load ptr, ptr %25, align 8, !tbaa !37
  %27 = load ptr, ptr %3, align 8, !tbaa !56
  %28 = getelementptr inbounds nuw %struct.DataBuffer, ptr %27, i32 0, i32 0
  %29 = load i64, ptr %28, align 8, !tbaa !39
  %30 = add i64 %29, 1
  store i64 %30, ptr %28, align 8, !tbaa !39
  %31 = getelementptr inbounds nuw i8, ptr %26, i64 %29
  %32 = load i8, ptr %31, align 1, !tbaa !58
  %33 = zext i8 %32 to i32
  %34 = or i32 %23, %33
  store i32 %34, ptr %7, align 4, !tbaa !13
  %35 = load i32, ptr %7, align 4, !tbaa !13
  %36 = load i32, ptr %6, align 4, !tbaa !13
  %37 = lshr i32 %35, %36
  %38 = load i32, ptr %4, align 4, !tbaa !13
  %39 = sub nsw i32 %38, 8
  %40 = shl i32 %37, %39
  %41 = load i32, ptr %5, align 4, !tbaa !13
  %42 = or i32 %41, %40
  store i32 %42, ptr %5, align 4, !tbaa !13
  %43 = load i32, ptr %4, align 4, !tbaa !13
  %44 = sub nsw i32 %43, 8
  store i32 %44, ptr %4, align 4, !tbaa !13
  br label %18, !llvm.loop !68

45:                                               ; preds = %18
  %46 = load i32, ptr %4, align 4, !tbaa !13
  %47 = icmp sgt i32 %46, 0
  br i1 %47, label %48, label %81

48:                                               ; preds = %45
  %49 = load i32, ptr %6, align 4, !tbaa !13
  %50 = load i32, ptr %4, align 4, !tbaa !13
  %51 = icmp slt i32 %49, %50
  br i1 %51, label %52, label %68

52:                                               ; preds = %48
  %53 = load i32, ptr %6, align 4, !tbaa !13
  %54 = add nsw i32 %53, 8
  store i32 %54, ptr %6, align 4, !tbaa !13
  %55 = load i32, ptr %7, align 4, !tbaa !13
  %56 = shl i32 %55, 8
  %57 = load ptr, ptr %3, align 8, !tbaa !56
  %58 = getelementptr inbounds nuw %struct.DataBuffer, ptr %57, i32 0, i32 3
  %59 = load ptr, ptr %58, align 8, !tbaa !37
  %60 = load ptr, ptr %3, align 8, !tbaa !56
  %61 = getelementptr inbounds nuw %struct.DataBuffer, ptr %60, i32 0, i32 0
  %62 = load i64, ptr %61, align 8, !tbaa !39
  %63 = add i64 %62, 1
  store i64 %63, ptr %61, align 8, !tbaa !39
  %64 = getelementptr inbounds nuw i8, ptr %59, i64 %62
  %65 = load i8, ptr %64, align 1, !tbaa !58
  %66 = zext i8 %65 to i32
  %67 = or i32 %56, %66
  store i32 %67, ptr %7, align 4, !tbaa !13
  br label %68

68:                                               ; preds = %52, %48
  %69 = load i32, ptr %4, align 4, !tbaa !13
  %70 = load i32, ptr %6, align 4, !tbaa !13
  %71 = sub nsw i32 %70, %69
  store i32 %71, ptr %6, align 4, !tbaa !13
  %72 = load i32, ptr %7, align 4, !tbaa !13
  %73 = load i32, ptr %6, align 4, !tbaa !13
  %74 = lshr i32 %72, %73
  %75 = load i32, ptr %4, align 4, !tbaa !13
  %76 = shl i32 1, %75
  %77 = sub nsw i32 %76, 1
  %78 = and i32 %74, %77
  %79 = load i32, ptr %5, align 4, !tbaa !13
  %80 = or i32 %79, %78
  store i32 %80, ptr %5, align 4, !tbaa !13
  br label %81

81:                                               ; preds = %68, %45
  %82 = load i32, ptr %8, align 4, !tbaa !13
  %83 = load i32, ptr %5, align 4, !tbaa !13
  %84 = and i32 %83, %82
  store i32 %84, ptr %5, align 4, !tbaa !13
  %85 = load i32, ptr %6, align 4, !tbaa !13
  %86 = load ptr, ptr %3, align 8, !tbaa !56
  %87 = getelementptr inbounds nuw %struct.DataBuffer, ptr %86, i32 0, i32 1
  store i32 %85, ptr %87, align 8, !tbaa !40
  %88 = load i32, ptr %7, align 4, !tbaa !13
  %89 = load ptr, ptr %3, align 8, !tbaa !56
  %90 = getelementptr inbounds nuw %struct.DataBuffer, ptr %89, i32 0, i32 2
  store i32 %88, ptr %90, align 4, !tbaa !41
  %91 = load i32, ptr %5, align 4, !tbaa !13
  call void @llvm.lifetime.end.p0(i64 4, ptr %8) #11
  call void @llvm.lifetime.end.p0(i64 4, ptr %7) #11
  call void @llvm.lifetime.end.p0(i64 4, ptr %6) #11
  call void @llvm.lifetime.end.p0(i64 4, ptr %5) #11
  ret i32 %91
}

; Function Attrs: mustprogress nounwind uwtable
define internal void @_ZL11receiveintsP10DataBufferiiPKjPi(ptr noundef %0, i32 noundef %1, i32 noundef %2, ptr noundef %3, ptr noundef %4) #3 {
  %6 = alloca ptr, align 8
  %7 = alloca i32, align 4
  %8 = alloca i32, align 4
  %9 = alloca ptr, align 8
  %10 = alloca ptr, align 8
  %11 = alloca [32 x i32], align 16
  %12 = alloca i32, align 4
  %13 = alloca i32, align 4
  %14 = alloca i32, align 4
  %15 = alloca i32, align 4
  %16 = alloca i32, align 4
  store ptr %0, ptr %6, align 8, !tbaa !56
  store i32 %1, ptr %7, align 4, !tbaa !13
  store i32 %2, ptr %8, align 4, !tbaa !13
  store ptr %3, ptr %9, align 8, !tbaa !21
  store ptr %4, ptr %10, align 8, !tbaa !21
  call void @llvm.lifetime.start.p0(i64 128, ptr %11) #11
  call void @llvm.lifetime.start.p0(i64 4, ptr %12) #11
  call void @llvm.lifetime.start.p0(i64 4, ptr %13) #11
  call void @llvm.lifetime.start.p0(i64 4, ptr %14) #11
  call void @llvm.lifetime.start.p0(i64 4, ptr %15) #11
  call void @llvm.lifetime.start.p0(i64 4, ptr %16) #11
  %17 = getelementptr inbounds [32 x i32], ptr %11, i64 0, i64 3
  store i32 0, ptr %17, align 4, !tbaa !13
  %18 = getelementptr inbounds [32 x i32], ptr %11, i64 0, i64 2
  store i32 0, ptr %18, align 8, !tbaa !13
  %19 = getelementptr inbounds [32 x i32], ptr %11, i64 0, i64 1
  store i32 0, ptr %19, align 4, !tbaa !13
  %20 = getelementptr inbounds [32 x i32], ptr %11, i64 0, i64 0
  store i32 0, ptr %20, align 16, !tbaa !13
  store i32 0, ptr %14, align 4, !tbaa !13
  br label %21

21:                                               ; preds = %24, %5
  %22 = load i32, ptr %8, align 4, !tbaa !13
  %23 = icmp sgt i32 %22, 8
  br i1 %23, label %24, label %33

24:                                               ; preds = %21
  %25 = load ptr, ptr %6, align 8, !tbaa !56
  %26 = call noundef i32 @_ZL11receivebitsP10DataBufferi(ptr noundef %25, i32 noundef 8)
  %27 = load i32, ptr %14, align 4, !tbaa !13
  %28 = add nsw i32 %27, 1
  store i32 %28, ptr %14, align 4, !tbaa !13
  %29 = sext i32 %27 to i64
  %30 = getelementptr inbounds [32 x i32], ptr %11, i64 0, i64 %29
  store i32 %26, ptr %30, align 4, !tbaa !13
  %31 = load i32, ptr %8, align 4, !tbaa !13
  %32 = sub nsw i32 %31, 8
  store i32 %32, ptr %8, align 4, !tbaa !13
  br label %21, !llvm.loop !69

33:                                               ; preds = %21
  %34 = load i32, ptr %8, align 4, !tbaa !13
  %35 = icmp sgt i32 %34, 0
  br i1 %35, label %36, label %44

36:                                               ; preds = %33
  %37 = load ptr, ptr %6, align 8, !tbaa !56
  %38 = load i32, ptr %8, align 4, !tbaa !13
  %39 = call noundef i32 @_ZL11receivebitsP10DataBufferi(ptr noundef %37, i32 noundef %38)
  %40 = load i32, ptr %14, align 4, !tbaa !13
  %41 = add nsw i32 %40, 1
  store i32 %41, ptr %14, align 4, !tbaa !13
  %42 = sext i32 %40 to i64
  %43 = getelementptr inbounds [32 x i32], ptr %11, i64 0, i64 %42
  store i32 %39, ptr %43, align 4, !tbaa !13
  br label %44

44:                                               ; preds = %36, %33
  %45 = load i32, ptr %7, align 4, !tbaa !13
  %46 = sub nsw i32 %45, 1
  store i32 %46, ptr %12, align 4, !tbaa !13
  br label %47

47:                                               ; preds = %103, %44
  %48 = load i32, ptr %12, align 4, !tbaa !13
  %49 = icmp sgt i32 %48, 0
  br i1 %49, label %50, label %106

50:                                               ; preds = %47
  %51 = load ptr, ptr %9, align 8, !tbaa !21
  %52 = load i32, ptr %12, align 4, !tbaa !13
  %53 = sext i32 %52 to i64
  %54 = getelementptr inbounds i32, ptr %51, i64 %53
  %55 = load i32, ptr %54, align 4, !tbaa !13
  %56 = icmp eq i32 %55, 0
  br i1 %56, label %57, label %60

57:                                               ; preds = %50
  %58 = load ptr, ptr @stderr, align 8, !tbaa !31
  %59 = call i32 (ptr, ptr, ...) @fprintf(ptr noundef %58, ptr noundef @.str.11) #11
  call void @exit(i32 noundef 1) #12
  unreachable

60:                                               ; preds = %50
  store i32 0, ptr %16, align 4, !tbaa !13
  %61 = load i32, ptr %14, align 4, !tbaa !13
  %62 = sub nsw i32 %61, 1
  store i32 %62, ptr %13, align 4, !tbaa !13
  br label %63

63:                                               ; preds = %94, %60
  %64 = load i32, ptr %13, align 4, !tbaa !13
  %65 = icmp sge i32 %64, 0
  br i1 %65, label %66, label %97

66:                                               ; preds = %63
  %67 = load i32, ptr %16, align 4, !tbaa !13
  %68 = shl i32 %67, 8
  %69 = load i32, ptr %13, align 4, !tbaa !13
  %70 = sext i32 %69 to i64
  %71 = getelementptr inbounds [32 x i32], ptr %11, i64 0, i64 %70
  %72 = load i32, ptr %71, align 4, !tbaa !13
  %73 = or i32 %68, %72
  store i32 %73, ptr %16, align 4, !tbaa !13
  %74 = load i32, ptr %16, align 4, !tbaa !13
  %75 = load ptr, ptr %9, align 8, !tbaa !21
  %76 = load i32, ptr %12, align 4, !tbaa !13
  %77 = sext i32 %76 to i64
  %78 = getelementptr inbounds i32, ptr %75, i64 %77
  %79 = load i32, ptr %78, align 4, !tbaa !13
  %80 = udiv i32 %74, %79
  store i32 %80, ptr %15, align 4, !tbaa !13
  %81 = load i32, ptr %15, align 4, !tbaa !13
  %82 = load i32, ptr %13, align 4, !tbaa !13
  %83 = sext i32 %82 to i64
  %84 = getelementptr inbounds [32 x i32], ptr %11, i64 0, i64 %83
  store i32 %81, ptr %84, align 4, !tbaa !13
  %85 = load i32, ptr %16, align 4, !tbaa !13
  %86 = load i32, ptr %15, align 4, !tbaa !13
  %87 = load ptr, ptr %9, align 8, !tbaa !21
  %88 = load i32, ptr %12, align 4, !tbaa !13
  %89 = sext i32 %88 to i64
  %90 = getelementptr inbounds i32, ptr %87, i64 %89
  %91 = load i32, ptr %90, align 4, !tbaa !13
  %92 = mul i32 %86, %91
  %93 = sub i32 %85, %92
  store i32 %93, ptr %16, align 4, !tbaa !13
  br label %94

94:                                               ; preds = %66
  %95 = load i32, ptr %13, align 4, !tbaa !13
  %96 = add nsw i32 %95, -1
  store i32 %96, ptr %13, align 4, !tbaa !13
  br label %63, !llvm.loop !70

97:                                               ; preds = %63
  %98 = load i32, ptr %16, align 4, !tbaa !13
  %99 = load ptr, ptr %10, align 8, !tbaa !21
  %100 = load i32, ptr %12, align 4, !tbaa !13
  %101 = sext i32 %100 to i64
  %102 = getelementptr inbounds i32, ptr %99, i64 %101
  store i32 %98, ptr %102, align 4, !tbaa !13
  br label %103

103:                                              ; preds = %97
  %104 = load i32, ptr %12, align 4, !tbaa !13
  %105 = add nsw i32 %104, -1
  store i32 %105, ptr %12, align 4, !tbaa !13
  br label %47, !llvm.loop !71

106:                                              ; preds = %47
  %107 = getelementptr inbounds [32 x i32], ptr %11, i64 0, i64 0
  %108 = load i32, ptr %107, align 16, !tbaa !13
  %109 = getelementptr inbounds [32 x i32], ptr %11, i64 0, i64 1
  %110 = load i32, ptr %109, align 4, !tbaa !13
  %111 = shl i32 %110, 8
  %112 = or i32 %108, %111
  %113 = getelementptr inbounds [32 x i32], ptr %11, i64 0, i64 2
  %114 = load i32, ptr %113, align 8, !tbaa !13
  %115 = shl i32 %114, 16
  %116 = or i32 %112, %115
  %117 = getelementptr inbounds [32 x i32], ptr %11, i64 0, i64 3
  %118 = load i32, ptr %117, align 4, !tbaa !13
  %119 = shl i32 %118, 24
  %120 = or i32 %116, %119
  %121 = load ptr, ptr %10, align 8, !tbaa !21
  %122 = getelementptr inbounds i32, ptr %121, i64 0
  store i32 %120, ptr %122, align 4, !tbaa !13
  call void @llvm.lifetime.end.p0(i64 4, ptr %16) #11
  call void @llvm.lifetime.end.p0(i64 4, ptr %15) #11
  call void @llvm.lifetime.end.p0(i64 4, ptr %14) #11
  call void @llvm.lifetime.end.p0(i64 4, ptr %13) #11
  call void @llvm.lifetime.end.p0(i64 4, ptr %12) #11
  call void @llvm.lifetime.end.p0(i64 128, ptr %11) #11
  ret void
}