; Function Attrs: mustprogress nofree nounwind uwtable
define internal fastcc void @_ZL11receiveintsP10DataBufferiiPKjPi(ptr noundef nonnull captures(none) %0, i32 noundef %1, ptr noundef nonnull readonly captures(none) %2, ptr noundef nonnull writeonly captures(none) %3) unnamed_addr #11 {
  %5 = alloca [32 x i32], align 16
  call void @llvm.lifetime.start.p0(i64 128, ptr nonnull %5) #17
  %6 = icmp sgt i32 %1, 8
  call void @llvm.memset.p0.i64(ptr noundef nonnull align 16 dereferenceable(16) %5, i8 0, i64 16, i1 false)
  br i1 %6, label %.lr.ph, label %._crit_edge

.lr.ph:                                           ; preds = %4
  %7 = getelementptr inbounds nuw i8, ptr %0, i64 8
  %8 = getelementptr inbounds nuw i8, ptr %0, i64 12
  %9 = getelementptr inbounds nuw i8, ptr %0, i64 16
  %10 = load ptr, ptr %9, align 8, !tbaa !17
  %.promoted = load i32, ptr %7, align 8, !tbaa !26
  %.promoted64 = load i32, ptr %8, align 4, !tbaa !27
  %.promoted66 = load i64, ptr %0, align 8, !tbaa !28
  br label %_ZL11receivebitsP10DataBufferi.exit

_ZL11receivebitsP10DataBufferi.exit:              ; preds = %_ZL11receivebitsP10DataBufferi.exit, %.lr.ph
  %indvars.iv = phi i64 [ 0, %.lr.ph ], [ %indvars.iv.next, %_ZL11receivebitsP10DataBufferi.exit ]
  %11 = phi i64 [ %.promoted66, %.lr.ph ], [ %12, %_ZL11receivebitsP10DataBufferi.exit ]
  %.1.i65 = phi i32 [ %.promoted64, %.lr.ph ], [ %17, %_ZL11receivebitsP10DataBufferi.exit ]
  %.03061 = phi i32 [ %1, %.lr.ph ], [ %21, %_ZL11receivebitsP10DataBufferi.exit ]
  %12 = add i64 %11, 1
  store i64 %12, ptr %0, align 8, !tbaa !28
  %13 = shl i32 %.1.i65, 8
  %14 = getelementptr inbounds nuw i8, ptr %10, i64 %11
  %15 = load i8, ptr %14, align 1, !tbaa !29
  %16 = zext i8 %15 to i32
  %17 = or disjoint i32 %13, %16
  %18 = lshr i32 %17, %.promoted
  %19 = and i32 %18, 255
  store i32 %.promoted, ptr %7, align 8, !tbaa !26
  store i32 %17, ptr %8, align 4, !tbaa !27
  %indvars.iv.next = add i64 %indvars.iv, 1
  %20 = getelementptr inbounds nuw [32 x i32], ptr %5, i64 0, i64 %indvars.iv
  store i32 %19, ptr %20, align 4, !tbaa !16
  %21 = add nsw i32 %.03061, -8
  %22 = icmp samesign ugt i32 %.03061, 16
  br i1 %22, label %_ZL11receivebitsP10DataBufferi.exit, label %._crit_edge.thread, !llvm.loop !49

._crit_edge.thread:                               ; preds = %_ZL11receivebitsP10DataBufferi.exit
  %23 = trunc i64 %indvars.iv.next to i32
  br label %25

._crit_edge:                                      ; preds = %4
  %24 = icmp sgt i32 %1, 0
  br i1 %24, label %25, label %.split.preheader

25:                                               ; preds = %._crit_edge.thread, %._crit_edge
  %.030.lcssa101 = phi i32 [ %21, %._crit_edge.thread ], [ %1, %._crit_edge ]
  %.031.lcssa100 = phi i32 [ %23, %._crit_edge.thread ], [ 0, %._crit_edge ]
  %26 = getelementptr inbounds nuw i8, ptr %0, i64 8
  %27 = load i32, ptr %26, align 8, !tbaa !26
  %28 = getelementptr inbounds nuw i8, ptr %0, i64 12
  %29 = load i32, ptr %28, align 4, !tbaa !27
  %30 = icmp samesign ugt i32 %.030.lcssa101, 7
  br i1 %30, label %.lr.ph.i._ZL11receivebitsP10DataBufferi.exit45_crit_edge, label %._crit_edge.i34.thread

.lr.ph.i._ZL11receivebitsP10DataBufferi.exit45_crit_edge: ; preds = %25
  %31 = getelementptr inbounds nuw i8, ptr %0, i64 16
  %32 = load ptr, ptr %31, align 8, !tbaa !17
  %.promoted.i41 = load i64, ptr %0, align 8, !tbaa !28
  %33 = add i64 %.promoted.i41, 1
  store i64 %33, ptr %0, align 8, !tbaa !28
  %34 = shl i32 %29, 8
  %35 = getelementptr inbounds nuw i8, ptr %32, i64 %.promoted.i41
  %36 = load i8, ptr %35, align 1, !tbaa !29
  %37 = zext i8 %36 to i32
  %38 = or disjoint i32 %34, %37
  %39 = lshr i32 %38, %27
  br label %57

._crit_edge.i34.thread:                           ; preds = %25
  %40 = icmp slt i32 %27, %.030.lcssa101
  br i1 %40, label %41, label %52

41:                                               ; preds = %._crit_edge.i34.thread
  %42 = add nsw i32 %27, 8
  %43 = shl i32 %29, 8
  %44 = getelementptr inbounds nuw i8, ptr %0, i64 16
  %45 = load ptr, ptr %44, align 8, !tbaa !17
  %46 = load i64, ptr %0, align 8, !tbaa !28
  %47 = add i64 %46, 1
  store i64 %47, ptr %0, align 8, !tbaa !28
  %48 = getelementptr inbounds nuw i8, ptr %45, i64 %46
  %49 = load i8, ptr %48, align 1, !tbaa !29
  %50 = zext i8 %49 to i32
  %51 = or disjoint i32 %43, %50
  br label %52

52:                                               ; preds = %41, %._crit_edge.i34.thread
  %.133.i38 = phi i32 [ %42, %41 ], [ %27, %._crit_edge.i34.thread ]
  %.2.i39 = phi i32 [ %51, %41 ], [ %29, %._crit_edge.i34.thread ]
  %53 = sub nsw i32 %.133.i38, %.030.lcssa101
  %54 = lshr i32 %.2.i39, %53
  %notmask38.i40 = shl nsw i32 -1, %.030.lcssa101
  %55 = xor i32 %notmask38.i40, -1
  %56 = and i32 %54, %55
  br label %57

57:                                               ; preds = %52, %.lr.ph.i._ZL11receivebitsP10DataBufferi.exit45_crit_edge
  %.pre-phi = phi i32 [ 255, %.lr.ph.i._ZL11receivebitsP10DataBufferi.exit45_crit_edge ], [ %55, %52 ]
  %.135.i35 = phi i32 [ %39, %.lr.ph.i._ZL11receivebitsP10DataBufferi.exit45_crit_edge ], [ %56, %52 ]
  %.032.i36 = phi i32 [ %27, %.lr.ph.i._ZL11receivebitsP10DataBufferi.exit45_crit_edge ], [ %53, %52 ]
  %.1.i37 = phi i32 [ %38, %.lr.ph.i._ZL11receivebitsP10DataBufferi.exit45_crit_edge ], [ %.2.i39, %52 ]
  %58 = and i32 %.135.i35, %.pre-phi
  store i32 %.032.i36, ptr %26, align 8, !tbaa !26
  store i32 %.1.i37, ptr %28, align 4, !tbaa !27
  %59 = zext nneg i32 %.031.lcssa100 to i64
  %60 = getelementptr inbounds nuw [32 x i32], ptr %5, i64 0, i64 %59
  store i32 %58, ptr %60, align 4, !tbaa !16
  %61 = icmp ult i32 %.031.lcssa100, 2147483647
  br i1 %61, label %.split.us.preheader, label %.split.preheader

.split.preheader:                                 ; preds = %._crit_edge, %57
  br label %.split

.split.us.preheader:                              ; preds = %57
  %62 = add nuw i32 %.031.lcssa100, 1
  %63 = zext nneg i32 %62 to i64
  br label %.split.us

.split.us:                                        ; preds = %.split.us.preheader, %._crit_edge71.us
  %indvars.iv94 = phi i64 [ 2, %.split.us.preheader ], [ %indvars.iv.next95, %._crit_edge71.us ]
  %64 = getelementptr inbounds nuw i32, ptr %2, i64 %indvars.iv94
  %65 = load i32, ptr %64, align 4, !tbaa !16
  %66 = icmp eq i32 %65, 0
  br i1 %66, label %.split75.us, label %.preheader.us

.preheader.us:                                    ; preds = %.split.us, %.preheader.us
  %indvars.iv91 = phi i64 [ %indvars.iv.next92, %.preheader.us ], [ %63, %.split.us ]
  %.069.us = phi i32 [ %.recomposed, %.preheader.us ], [ 0, %.split.us ]
  %indvars.iv.next92 = add nsw i64 %indvars.iv91, -1
  %67 = shl i32 %.069.us, 8
  %68 = getelementptr inbounds nuw [32 x i32], ptr %5, i64 0, i64 %indvars.iv.next92
  %69 = load i32, ptr %68, align 4, !tbaa !16
  %70 = or i32 %69, %67
  %71 = udiv i32 %70, %65
  store i32 %71, ptr %68, align 4, !tbaa !16
  %72 = mul i32 %71, %65
  %.recomposed = urem i32 %70, %65
  %73 = icmp sgt i64 %indvars.iv91, 1
  br i1 %73, label %.preheader.us, label %._crit_edge71.us, !llvm.loop !50

._crit_edge71.us:                                 ; preds = %.preheader.us
  %74 = getelementptr inbounds nuw i32, ptr %3, i64 %indvars.iv94
  store i32 %.recomposed, ptr %74, align 4, !tbaa !16
  %indvars.iv.next95 = add nsw i64 %indvars.iv94, -1
  %75 = icmp ugt i64 %indvars.iv94, 1
  br i1 %75, label %.split.us, label %.split77.us, !llvm.loop !51

.split:                                           ; preds = %.split.preheader, %.preheader
  %.03373 = phi i32 [ %81, %.preheader ], [ 2, %.split.preheader ]
  %76 = zext nneg i32 %.03373 to i64
  %77 = getelementptr inbounds nuw i32, ptr %2, i64 %76
  %78 = load i32, ptr %77, align 4, !tbaa !16
  %79 = icmp eq i32 %78, 0
  br i1 %79, label %.split75.us, label %.preheader

.preheader:                                       ; preds = %.split
  %80 = getelementptr inbounds nuw i32, ptr %3, i64 %76
  store i32 0, ptr %80, align 4, !tbaa !16
  %81 = add nsw i32 %.03373, -1
  %82 = icmp ugt i32 %.03373, 1
  br i1 %82, label %.split, label %.split77.us, !llvm.loop !51

.split75.us:                                      ; preds = %.split, %.split.us
  %83 = load ptr, ptr @stderr, align 8, !tbaa !14
  %84 = tail call i64 @fwrite(ptr nonnull @.str.11, i64 48, i64 1, ptr %83) #21
  tail call void @exit(i32 noundef 1) #19
  unreachable

.split77.us:                                      ; preds = %.preheader, %._crit_edge71.us
  %85 = getelementptr inbounds nuw i8, ptr %5, i64 4
  %86 = getelementptr inbounds nuw i8, ptr %5, i64 8
  %87 = getelementptr inbounds nuw i8, ptr %5, i64 12
  %88 = load i32, ptr %5, align 16, !tbaa !16
  %89 = load i32, ptr %85, align 4, !tbaa !16
  %90 = shl i32 %89, 8
  %91 = or i32 %90, %88
  %92 = load i32, ptr %86, align 8, !tbaa !16
  %93 = shl i32 %92, 16
  %94 = or i32 %91, %93
  %95 = load i32, ptr %87, align 4, !tbaa !16
  %96 = shl i32 %95, 24
  %97 = or i32 %94, %96
  store i32 %97, ptr %3, align 4, !tbaa !16
  call void @llvm.lifetime.end.p0(i64 128, ptr nonnull %5) #17
  ret void
}